target datalayout = "e-m:e-p270:32:32-p271:32:32-p272:64:64-i64:64-i128:128-f80:128-n8:16:32:64-S128"
target triple = "x86_64-pc-linux-gnu"

%struct._object = type { i64, ptr }
%"struct.std::_Vector_base.1" = type { %"struct.std::_Vector_base<float, std::allocator<float>>::_Vector_impl" }
%"struct.std::_Vector_base<float, std::allocator<float>>::_Vector_impl" = type { %"struct.std::_Vector_base<float, std::allocator<float>>::_Vector_impl_data" }
%"struct.std::_Vector_base<float, std::allocator<float>>::_Vector_impl_data" = type { ptr, ptr, ptr }

@PyExc_IndexError = external global ptr, align 8
@.str.2 = private unnamed_addr constant [47 x i8] c"Vector has wrong length (expected %d, got %ld)\00", align 1

; Function Attrs: mustprogress nounwind sspstrong uwtable
define linkonce_odr noundef nonnull align 4 dereferenceable(4) ptr @_ZNSt6vectorIfSaIfEEixEm(ptr noundef nonnull align 8 dereferenceable(24) %0, i64 noundef %1) #0 comdat align 2 {
  %3 = alloca ptr, align 8
  %4 = alloca i64, align 8
  store ptr %0, ptr %3, align 8, !tbaa !10
  store i64 %1, ptr %4, align 8, !tbaa !16
  %5 = load ptr, ptr %3, align 8
  %6 = getelementptr inbounds nuw %"struct.std::_Vector_base.1", ptr %5, i32 0, i32 0
  %7 = getelementptr inbounds nuw %"struct.std::_Vector_base<float, std::allocator<float>>::_Vector_impl_data", ptr %6, i32 0, i32 0
  %8 = load ptr, ptr %7, align 8, !tbaa !30
  %9 = load i64, ptr %4, align 8, !tbaa !16
  %10 = getelementptr inbounds nuw float, ptr %8, i64 %9
  ret ptr %10
}

; Function Attrs: inlinehint mustprogress sspstrong uwtable
define internal void @_ZL10_Py_DECREFP7_object(ptr noundef %0) #5 {
  %2 = alloca ptr, align 8
  store ptr %0, ptr %2, align 8, !tbaa !14
  %3 = load ptr, ptr %2, align 8, !tbaa !14
  %4 = getelementptr inbounds nuw %struct._object, ptr %3, i32 0, i32 0
  %5 = load i64, ptr %4, align 8, !tbaa !45
  %6 = add i64 %5, -1
  store i64 %6, ptr %4, align 8, !tbaa !45
  %7 = icmp ne i64 %6, 0
  br i1 %7, label %8, label %9

8:                                                ; preds = %1
  br label %11

9:                                                ; preds = %1
  %10 = load ptr, ptr %2, align 8, !tbaa !14
  call void @_Py_Dealloc(ptr noundef %10)
  br label %11

11:                                               ; preds = %9, %8
  ret void
}

; Function Attrs: mustprogress sspstrong uwtable
define noundef zeroext i1 @_Z22convert_list_to_vectorP7_objectiPSt6vectorIfSaIfEE(ptr noundef %0, i32 noundef %1, ptr noundef %2) #2 {
  %4 = alloca i1, align 1
  %5 = alloca ptr, align 8
  %6 = alloca i32, align 4
  %7 = alloca ptr, align 8
  %8 = alloca i64, align 8
  %9 = alloca i32, align 4
  %10 = alloca i32, align 4
  %11 = alloca ptr, align 8
  %12 = alloca ptr, align 8
  %13 = alloca double, align 8
  store ptr %0, ptr %5, align 8, !tbaa !14
  store i32 %1, ptr %6, align 4, !tbaa !12
  store ptr %2, ptr %7, align 8, !tbaa !10
  call void @llvm.lifetime.start.p0(i64 8, ptr %8) #28
  %14 = load ptr, ptr %5, align 8, !tbaa !14
  %15 = call i64 @PyObject_Size(ptr noundef %14)
  store i64 %15, ptr %8, align 8, !tbaa !16
  %16 = load i64, ptr %8, align 8, !tbaa !16
  %17 = icmp eq i64 %16, -1
  br i1 %17, label %18, label %19

18:                                               ; preds = %3
  store i1 false, ptr %4, align 1
  store i32 1, ptr %9, align 4
  br label %78

19:                                               ; preds = %3
  %20 = load i64, ptr %8, align 8, !tbaa !16
  %21 = load i32, ptr %6, align 4, !tbaa !12
  %22 = sext i32 %21 to i64
  %23 = icmp ne i64 %20, %22
  br i1 %23, label %24, label %29

24:                                               ; preds = %19
  %25 = load ptr, ptr @PyExc_IndexError, align 8, !tbaa !14
  %26 = load i32, ptr %6, align 4, !tbaa !12
  %27 = load i64, ptr %8, align 8, !tbaa !16
  %28 = call ptr (ptr, ptr, ...) @PyErr_Format(ptr noundef %25, ptr noundef @.str.2, i32 noundef %26, i64 noundef %27)
  store i1 false, ptr %4, align 1
  store i32 1, ptr %9, align 4
  br label %78

29:                                               ; preds = %19
  call void @llvm.lifetime.start.p0(i64 4, ptr %10) #28
  store i32 0, ptr %10, align 4, !tbaa !12
  br label %30

30:                                               ; preds = %72, %29
  %31 = load i32, ptr %10, align 4, !tbaa !12
  %32 = load i32, ptr %6, align 4, !tbaa !12
  %33 = icmp slt i32 %31, %32
  br i1 %33, label %35, label %34

34:                                               ; preds = %30
  store i32 2, ptr %9, align 4
  br label %75

35:                                               ; preds = %30
  call void @llvm.lifetime.start.p0(i64 8, ptr %11) #28
  %36 = load i32, ptr %10, align 4, !tbaa !12
  %37 = sext i32 %36 to i64
  %38 = call ptr @PyLong_FromLong(i64 noundef %37)
  store ptr %38, ptr %11, align 8, !tbaa !14
  %39 = load ptr, ptr %11, align 8, !tbaa !14
  %40 = icmp eq ptr %39, null
  br i1 %40, label %41, label %42

41:                                               ; preds = %35
  store i1 false, ptr %4, align 1
  store i32 1, ptr %9, align 4
  br label %69

42:                                               ; preds = %35
  call void @llvm.lifetime.start.p0(i64 8, ptr %12) #28
  %43 = load ptr, ptr %5, align 8, !tbaa !14
  %44 = load ptr, ptr %11, align 8, !tbaa !14
  %45 = call ptr @PyObject_GetItem(ptr noundef %43, ptr noundef %44)
  store ptr %45, ptr %12, align 8, !tbaa !14
  %46 = load ptr, ptr %11, align 8, !tbaa !14
  call void @_ZL10_Py_DECREFP7_object(ptr noundef %46)
  %47 = load ptr, ptr %12, align 8, !tbaa !14
  %48 = icmp eq ptr %47, null
  br i1 %48, label %49, label %50

49:                                               ; preds = %42
  store i1 false, ptr %4, align 1
  store i32 1, ptr %9, align 4
  br label %68

50:                                               ; preds = %42
  call void @llvm.lifetime.start.p0(i64 8, ptr %13) #28
  %51 = load ptr, ptr %12, align 8, !tbaa !14
  %52 = call nnan ninf nsz arcp contract afn nofpclass(nan inf) double @PyFloat_AsDouble(ptr noundef %51)
  store double %52, ptr %13, align 8, !tbaa !42
  %53 = load ptr, ptr %12, align 8, !tbaa !14
  call void @_ZL10_Py_DECREFP7_object(ptr noundef %53)
  %54 = load double, ptr %13, align 8, !tbaa !42
  %55 = fcmp nnan ninf nsz arcp contract afn oeq double %54, -1.000000e+00
  br i1 %55, label %56, label %60

56:                                               ; preds = %50
  %57 = call ptr @PyErr_Occurred()
  %58 = icmp ne ptr %57, null
  br i1 %58, label %59, label %60

59:                                               ; preds = %56
  store i1 false, ptr %4, align 1
  store i32 1, ptr %9, align 4
  br label %67

60:                                               ; preds = %56, %50
  %61 = load double, ptr %13, align 8, !tbaa !42
  %62 = fptrunc nnan ninf nsz arcp contract afn double %61 to float
  %63 = load ptr, ptr %7, align 8, !tbaa !10
  %64 = load i32, ptr %10, align 4, !tbaa !12
  %65 = sext i32 %64 to i64
  %66 = call noundef nonnull align 4 dereferenceable(4) ptr @_ZNSt6vectorIfSaIfEEixEm(ptr noundef nonnull align 8 dereferenceable(24) %63, i64 noundef %65) #28
  store float %62, ptr %66, align 4, !tbaa !20
  store i32 0, ptr %9, align 4
  br label %67

67:                                               ; preds = %60, %59
  call void @llvm.lifetime.end.p0(i64 8, ptr %13) #28
  br label %68

68:                                               ; preds = %67, %49
  call void @llvm.lifetime.end.p0(i64 8, ptr %12) #28
  br label %69

69:                                               ; preds = %68, %41
  call void @llvm.lifetime.end.p0(i64 8, ptr %11) #28
  %70 = load i32, ptr %9, align 4
  switch i32 %70, label %75 [
    i32 0, label %71
  ]

71:                                               ; preds = %69
  br label %72

72:                                               ; preds = %71
  %73 = load i32, ptr %10, align 4, !tbaa !12
  %74 = add i32 %73, 1
  store i32 %74, ptr %10, align 4, !tbaa !12
  br label %30, !llvm.loop !44

75:                                               ; preds = %69, %34
  call void @llvm.lifetime.end.p0(i64 4, ptr %10) #28
  %76 = load i32, ptr %9, align 4
  switch i32 %76, label %78 [
    i32 2, label %77
  ]

77:                                               ; preds = %75
  store i1 true, ptr %4, align 1
  store i32 1, ptr %9, align 4
  br label %78

78:                                               ; preds = %77, %75, %24, %18
  call void @llvm.lifetime.end.p0(i64 8, ptr %8) #28
  %79 = load i1, ptr %4, align 1
  ret i1 %79
}