; Function Attrs: mustprogress sspstrong uwtable
define noundef zeroext i1 @_Z22convert_list_to_vectorP7_objectiPSt6vectorIfSaIfEE(ptr noundef %0, i32 noundef %1, ptr noundef readonly captures(none) %2) local_unnamed_addr #2 {
  %4 = tail call i64 @PyObject_Size(ptr noundef %0)
  %5 = icmp eq i64 %4, -1
  br i1 %5, label %.critedge, label %6

6:                                                ; preds = %3
  %7 = sext i32 %1 to i64
  %.not = icmp eq i64 %4, %7
  br i1 %.not, label %.preheader, label %8

.preheader:                                       ; preds = %6
  %.not3336 = icmp slt i32 %1, 1
  br i1 %.not3336, label %.critedge, label %.lr.ph.preheader

.lr.ph.preheader:                                 ; preds = %.preheader
  %wide.trip.count = zext nneg i32 %1 to i64
  br label %.lr.ph

8:                                                ; preds = %6
  %9 = load ptr, ptr @PyExc_IndexError, align 8, !tbaa !30
  %10 = tail call ptr (ptr, ptr, ...) @PyErr_Format(ptr noundef %9, ptr noundef nonnull @.str.2, i32 noundef %1, i64 noundef %4)
  br label %.critedge

.lr.ph:                                           ; preds = %.lr.ph.preheader, %27
  %indvars.iv = phi i64 [ 0, %.lr.ph.preheader ], [ %indvars.iv.next, %27 ]
  %11 = tail call ptr @PyLong_FromLong(i64 noundef %indvars.iv)
  %12 = icmp eq ptr %11, null
  br i1 %12, label %.critedge, label %13

13:                                               ; preds = %.lr.ph
  %14 = tail call ptr @PyObject_GetItem(ptr noundef %0, ptr noundef nonnull %11)
  %15 = load i64, ptr %11, align 8, !tbaa !21
  %16 = add i64 %15, -1
  store i64 %16, ptr %11, align 8, !tbaa !21
  %.not.i = icmp eq i64 %16, 0
  br i1 %.not.i, label %17, label %_ZL10_Py_DECREFP7_object.exit

17:                                               ; preds = %13
  tail call void @_Py_Dealloc(ptr noundef nonnull %11)
  br label %_ZL10_Py_DECREFP7_object.exit

_ZL10_Py_DECREFP7_object.exit:                    ; preds = %13, %17
  %18 = icmp eq ptr %14, null
  br i1 %18, label %.critedge, label %19

19:                                               ; preds = %_ZL10_Py_DECREFP7_object.exit
  %20 = tail call nnan ninf nsz arcp contract afn nofpclass(nan inf) double @PyFloat_AsDouble(ptr noundef nonnull %14)
  %21 = load i64, ptr %14, align 8, !tbaa !21
  %22 = add i64 %21, -1
  store i64 %22, ptr %14, align 8, !tbaa !21
  %.not.i34 = icmp eq i64 %22, 0
  br i1 %.not.i34, label %23, label %_ZL10_Py_DECREFP7_object.exit35

23:                                               ; preds = %19
  tail call void @_Py_Dealloc(ptr noundef nonnull %14)
  br label %_ZL10_Py_DECREFP7_object.exit35

_ZL10_Py_DECREFP7_object.exit35:                  ; preds = %19, %23
  %24 = fcmp nnan ninf nsz arcp contract afn oeq double %20, -1.000000e+00
  br i1 %24, label %25, label %27

25:                                               ; preds = %_ZL10_Py_DECREFP7_object.exit35
  %26 = tail call ptr @PyErr_Occurred()
  %.not32 = icmp eq ptr %26, null
  br i1 %.not32, label %27, label %.critedge

27:                                               ; preds = %25, %_ZL10_Py_DECREFP7_object.exit35
  %28 = fptrunc nnan ninf nsz arcp contract afn double %20 to float
  %29 = load ptr, ptr %2, align 8, !tbaa !17
  %30 = getelementptr inbounds nuw float, ptr %29, i64 %indvars.iv
  store float %28, ptr %30, align 4, !tbaa !18
  %indvars.iv.next = add nuw nsw i64 %indvars.iv, 1
  %exitcond.not = icmp eq i64 %indvars.iv.next, %wide.trip.count
  br i1 %exitcond.not, label %.critedge, label %.lr.ph, !llvm.loop !32

.critedge:                                        ; preds = %.lr.ph, %_ZL10_Py_DECREFP7_object.exit, %25, %27, %.preheader, %3, %8
  %.0 = phi i1 [ false, %8 ], [ false, %3 ], [ true, %.preheader ], [ false, %.lr.ph ], [ false, %_ZL10_Py_DECREFP7_object.exit ], [ false, %25 ], [ true, %27 ]
  ret i1 %.0
}